(dp1
S'output'
p2
S"<type 'exceptions.ValueError'> invalid literal for long() with base 10: 'mystyle.css'"
p3
sS'layer'
p4
S'/ug/ug2k13/csd/aryaman.gupta/web2py/applications/BKG/controllers/default.py'
p5
sS'code'
p6
S'def index():\n    response.flash = T("Welcome")\n    if auth.user != None:\n        redirect(URL(\'home_user\'))\n    return dict( var=request.vars)\n\n\ndef ace():\n    th=[]\n    key = request.get_vars["key"]\n    roll = request.get_vars["roll"]\n    rows = db(db.Restaurants.name.startswith(key)).select()\n\n    json = \'{"names":[\'\n    i=0\n    for r in rows:\n        if(i!=0):\n             json += ","\n        json += \'"\'+r[\'name\']+\'"\'\n        i+=1\n    json+= "]}"\n    return dict(j = json)  \n\n\ndef user():\n    return dict(form=auth())\n\n\n@cache.action()\ndef download():\n    return response.download(request, db)\n\n\n@auth.requires_signature()\ndef data():\n    return dict(form=crud())\n\n\ndef me():   \n    form = SQLFORM(db.t)\n    form.process()\n    return dict(form=form, rows = db(db.t.name.startswith(\'c\')).select())\n    \n\ndef login():\n    return dict(form = auth())\n\n      \ndef download():\n\treturn response.download(request, db)\n\n    \ndef found():\n    val = request.vars\n    c = val.keys()\n    a = val[c[0]]\n    a = a.lower()\n    a = a.strip()\n    print a\n    if db((db.Restaurants.name == a) | (db.Restaurants.city == a) | (db.Restaurants.area == a) | (db.Movie_Halls.area == a) | (db.Movie_Halls.name == a) | (db.Movie_Halls.city == a)).isempty():\n       return HTML(H1(P("Page not found"))).xml()\n    b = db((db.Restaurants.name == a) | (db.Restaurants.city == a) | (db.Restaurants.area == a)).select()\n    c = db((db.Movie_Halls.name == a) | (db.Movie_Halls.city == a) | (db.Movie_Halls.area == a)).select()\n    return dict(tab=b, mov=c)\n\n    \ndef info():\n    args = request.args\n    var = request.vars\n    arg = request.args[0]\n    print \'row:\',arg\n    b = db(db.Restaurants.id == arg).select()\n    c = db((db.Comments.rid == arg) & (db.Comments.table_name == \'Restaurants\')).select()\n    d = db(db.Images.rid == arg).select()\n    print arg,d\n    message = "Hi"\n    if c == [] or d == []:\n       message = "Nothing to Show"\n    \n    form_comment = SQLFORM(db.Comments)    \n    form_comment.vars.user = auth.user.first_name\n    form_comment.vars.rid = request.args[0]\n    form_comment.vars.table_name = \'Restaurants\'\n    if form_comment.process().accepted:\n    \tresponse.flash=T("entry inserted")\n    elif form_comment.errors:\n    \tresponse.flash=T("fill again")\n    else:\n    \tpass\n   \t    \n    form_images = SQLFORM(db.Images)    \n    form_images.vars.user = auth.user.first_name\n    #print request.args\n    form_images.vars.rid = request.args[0]\n    if form_images.process().accepted:\n    \tresponse.flash=T("entry inserted")\n    elif form_images.errors:\n    \tresponse.flash=T("fill again")\n    else:\n    \tpass\n    return dict(arg = arg, record = b, comments = c, images = d, message = message,form_comment=form_comment,form_images=form_images)\n\n\n@auth.requires_login()    \ndef home_user():  \n    form_movie = SQLFORM(db.Movie_Halls)\n    form_restaurant = SQLFORM(db.Restaurants)\n    \n    if form_movie.process().accepted:\n    \tresponse.flash=T("entry inserted")\n    elif form_movie.errors:\n    \tresponse.flash=T("fill again")\n    else:\n    \tpass\n    \t\n    if form_restaurant.process().accepted:\n    \tresponse.flash=T("entry inserted")\n    elif form_restaurant.errors:\n    \tresponse.flash=T("fill again")\n    else:\n    \tpass\t\n    return dict(message=T(\'Hello  \' + auth.user.first_name),\n    \t\t\t\tform_movie=form_movie,\n    \t\t\t\tform_restaurant=form_restaurant)\n\n    \ndef infom():\n    args = request.args\n    var = request.vars\n    arg = request.args[0]\n    print \'row:\',arg\n    b = db(db.Movie_Halls.id == arg).select()\n    c = db((db.Comments.rid == arg) & (db.Comments.table_name == \'Movie_Halls\')).select()\n    print arg\n    message = "Hi"\n    if c == []:\n       message = "Nothing to Show"\n       \n    form_mcomment = SQLFORM(db.Comments)    \n    form_mcomment.vars.user = auth.user.first_name\n    form_mcomment.vars.rid = request.args[0]\n    form_mcomment.vars.table_name = \'Movie_Halls\'\n    if form_mcomment.process().accepted:\n    \tresponse.flash=T("entry inserted")\n    elif form_mcomment.errors:\n    \tresponse.flash=T("fill" )\n    else:\n    \tpass   \n    return dict(arg = arg, record = b, comments = c, message = message, form_mcomment=form_mcomment)\n  \n\nresponse._vars=response._caller(info)\n'
p7
sS'snapshot'
p8
(dp9
sS'traceback'
p10
S'Traceback (most recent call last):\n  File "/ug/ug2k13/csd/aryaman.gupta/web2py/gluon/restricted.py", line 217, in restricted\n    exec ccode in environment\n  File "/ug/ug2k13/csd/aryaman.gupta/web2py/applications/BKG/controllers/default.py", line 152, in <module>\n  File "/ug/ug2k13/csd/aryaman.gupta/web2py/gluon/globals.py", line 385, in <lambda>\n    self._caller = lambda f: f()\n  File "/ug/ug2k13/csd/aryaman.gupta/web2py/applications/BKG/controllers/default.py", line 72, in info\n    b = db(db.Restaurants.id == arg).select()\n  File "/ug/ug2k13/csd/aryaman.gupta/web2py/gluon/dal.py", line 10485, in select\n    return adapter.select(self.query,fields,attributes)\n  File "/ug/ug2k13/csd/aryaman.gupta/web2py/gluon/dal.py", line 2458, in select\n    return super(SQLiteAdapter, self).select(query, fields, attributes)\n  File "/ug/ug2k13/csd/aryaman.gupta/web2py/gluon/dal.py", line 1869, in select\n    sql = self._select(query, fields, attributes)\n  File "/ug/ug2k13/csd/aryaman.gupta/web2py/gluon/dal.py", line 1774, in _select\n    sql_w = \' WHERE \' + self.expand(query) if query else \'\'\n  File "/ug/ug2k13/csd/aryaman.gupta/web2py/gluon/dal.py", line 1541, in expand\n    out = op(first, second, **optional_args)\n  File "/ug/ug2k13/csd/aryaman.gupta/web2py/gluon/dal.py", line 1438, in EQ\n    self.expand(second, first.type))\n  File "/ug/ug2k13/csd/aryaman.gupta/web2py/gluon/dal.py", line 1552, in expand\n    return str(self.represent(expression,field_type))\n  File "/ug/ug2k13/csd/aryaman.gupta/web2py/gluon/dal.py", line 2007, in represent\n    return str(long(obj))\nValueError: invalid literal for long() with base 10: \'mystyle.css\'\n'
p11
s.